; Function Attrs: mustprogress uwtable
define noundef i64 @_ZN8facebook5velox6memory13MemoryManager11shrinkPoolsEm(ptr noundef nonnull align 8 dereferenceable(176) %this, i64 noundef %targetBytes) local_unnamed_addr #0 align 2 personality ptr @__gxx_personality_v0 {
entry:
  %ref.tmp = alloca %"class.std::vector", align 8
  %arbitrator_ = getelementptr inbounds i8, ptr %this, i64 24
  %0 = load ptr, ptr %arbitrator_, align 8
  call void @_ZNK8facebook5velox6memory13MemoryManager13getAlivePoolsEv(ptr nonnull sret(%"class.std::vector") align 8 %ref.tmp, ptr noundef nonnull align 8 dereferenceable(176) %this)
  %vtable = load ptr, ptr %0, align 8
  %vfn = getelementptr inbounds i8, ptr %vtable, i64 48
  %1 = load ptr, ptr %vfn, align 8
  %call2 = invoke noundef i64 %1(ptr noundef nonnull align 8 dereferenceable(72) %0, ptr noundef nonnull align 8 dereferenceable(24) %ref.tmp, i64 noundef %targetBytes)
          to label %invoke.cont unwind label %lpad

invoke.cont:                                      ; preds = %entry
  %2 = load ptr, ptr %ref.tmp, align 8
  %_M_finish.i = getelementptr inbounds i8, ptr %ref.tmp, i64 8
  %3 = load ptr, ptr %_M_finish.i, align 8
  %cmp.not3.i.i.i.i = icmp eq ptr %2, %3
  br i1 %cmp.not3.i.i.i.i, label %invoke.cont.i, label %for.body.i.i.i.i

for.body.i.i.i.i:                                 ; preds = %invoke.cont, %_ZSt8_DestroyISt10shared_ptrIN8facebook5velox6memory10MemoryPoolEEEvPT_.exit.i.i.i.i
  %__first.addr.04.i.i.i.i = phi ptr [ %incdec.ptr.i.i.i.i, %_ZSt8_DestroyISt10shared_ptrIN8facebook5velox6memory10MemoryPoolEEEvPT_.exit.i.i.i.i ], [ %2, %invoke.cont ]
  %_M_refcount.i.i.i.i.i.i.i = getelementptr inbounds i8, ptr %__first.addr.04.i.i.i.i, i64 8
  %4 = load ptr, ptr %_M_refcount.i.i.i.i.i.i.i, align 8
  %cmp.not.i.i.i.i.i.i.i.i = icmp eq ptr %4, null
  br i1 %cmp.not.i.i.i.i.i.i.i.i, label %_ZSt8_DestroyISt10shared_ptrIN8facebook5velox6memory10MemoryPoolEEEvPT_.exit.i.i.i.i, label %if.then.i.i.i.i.i.i.i.i

if.then.i.i.i.i.i.i.i.i:                          ; preds = %for.body.i.i.i.i
  %_M_use_count.i.i.i.i.i.i.i.i.i = getelementptr inbounds i8, ptr %4, i64 8
  %5 = load atomic i64, ptr %_M_use_count.i.i.i.i.i.i.i.i.i acquire, align 8
  %cmp.i.i.i.i.i.i.i.i.i = icmp eq i64 %5, 4294967297
  %6 = trunc i64 %5 to i32
  br i1 %cmp.i.i.i.i.i.i.i.i.i, label %if.then.i.i.i.i.i.i.i.i.i, label %if.end.i.i.i.i.i.i.i.i.i

if.then.i.i.i.i.i.i.i.i.i:                        ; preds = %if.then.i.i.i.i.i.i.i.i
  store i32 0, ptr %_M_use_count.i.i.i.i.i.i.i.i.i, align 8
  %_M_weak_count.i.i.i.i.i.i.i.i.i = getelementptr inbounds i8, ptr %4, i64 12
  store i32 0, ptr %_M_weak_count.i.i.i.i.i.i.i.i.i, align 4
  %vtable.i.i.i.i.i.i.i.i.i = load ptr, ptr %4, align 8
  %vfn.i.i.i.i.i.i.i.i.i = getelementptr inbounds i8, ptr %vtable.i.i.i.i.i.i.i.i.i, i64 16
  %7 = load ptr, ptr %vfn.i.i.i.i.i.i.i.i.i, align 8
  call void %7(ptr noundef nonnull align 8 dereferenceable(16) %4) #19
  br label %if.end8.sink.split.i.i.i.i.i.i.i.i.i

if.end.i.i.i.i.i.i.i.i.i:                         ; preds = %if.then.i.i.i.i.i.i.i.i
  %8 = load i8, ptr @__libc_single_threaded, align 1
  %tobool.i.not.i.i.i.i.i.i.i.i.i = icmp eq i8 %8, 0
  br i1 %tobool.i.not.i.i.i.i.i.i.i.i.i, label %if.else.i.i.i.i.i.i.i.i.i.i, label %if.then.i.i.i.i.i.i.i.i.i.i

if.then.i.i.i.i.i.i.i.i.i.i:                      ; preds = %if.end.i.i.i.i.i.i.i.i.i
  %add.i.i.i.i.i.i.i.i.i.i = add nsw i32 %6, -1
  store i32 %add.i.i.i.i.i.i.i.i.i.i, ptr %_M_use_count.i.i.i.i.i.i.i.i.i, align 4
  br label %_ZN9__gnu_cxx27__exchange_and_add_dispatchEPii.exit.i.i.i.i.i.i.i.i.i

if.else.i.i.i.i.i.i.i.i.i.i:                      ; preds = %if.end.i.i.i.i.i.i.i.i.i
  %9 = atomicrmw volatile add ptr %_M_use_count.i.i.i.i.i.i.i.i.i, i32 -1 acq_rel, align 4
  br label %_ZN9__gnu_cxx27__exchange_and_add_dispatchEPii.exit.i.i.i.i.i.i.i.i.i

_ZN9__gnu_cxx27__exchange_and_add_dispatchEPii.exit.i.i.i.i.i.i.i.i.i: ; preds = %if.else.i.i.i.i.i.i.i.i.i.i, %if.then.i.i.i.i.i.i.i.i.i.i
  %retval.i.0.i.i.i.i.i.i.i.i.i = phi i32 [ %6, %if.then.i.i.i.i.i.i.i.i.i.i ], [ %9, %if.else.i.i.i.i.i.i.i.i.i.i ]
  %cmp6.i.i.i.i.i.i.i.i.i = icmp eq i32 %retval.i.0.i.i.i.i.i.i.i.i.i, 1
  br i1 %cmp6.i.i.i.i.i.i.i.i.i, label %if.then7.i.i.i.i.i.i.i.i.i, label %_ZSt8_DestroyISt10shared_ptrIN8facebook5velox6memory10MemoryPoolEEEvPT_.exit.i.i.i.i

if.then7.i.i.i.i.i.i.i.i.i:                       ; preds = %_ZN9__gnu_cxx27__exchange_and_add_dispatchEPii.exit.i.i.i.i.i.i.i.i.i
  %vtable.i.i.i.i.i.i.i.i.i.i.i = load ptr, ptr %4, align 8
  %vfn.i.i.i.i.i.i.i.i.i.i.i = getelementptr inbounds i8, ptr %vtable.i.i.i.i.i.i.i.i.i.i.i, i64 16
  %10 = load ptr, ptr %vfn.i.i.i.i.i.i.i.i.i.i.i, align 8
  call void %10(ptr noundef nonnull align 8 dereferenceable(16) %4) #19
  %_M_weak_count.i.i.i.i.i.i.i.i.i.i.i = getelementptr inbounds i8, ptr %4, i64 12
  %11 = load i8, ptr @__libc_single_threaded, align 1
  %tobool.i.not.i.i.i.i.i.i.i.i.i.i.i = icmp eq i8 %11, 0
  br i1 %tobool.i.not.i.i.i.i.i.i.i.i.i.i.i, label %if.else.i.i.i.i.i.i.i.i.i.i.i.i, label %if.then.i.i.i.i.i.i.i.i.i.i.i.i

if.then.i.i.i.i.i.i.i.i.i.i.i.i:                  ; preds = %if.then7.i.i.i.i.i.i.i.i.i
  %12 = load i32, ptr %_M_weak_count.i.i.i.i.i.i.i.i.i.i.i, align 4
  %add.i.i.i.i.i.i.i.i.i.i.i.i = add nsw i32 %12, -1
  store i32 %add.i.i.i.i.i.i.i.i.i.i.i.i, ptr %_M_weak_count.i.i.i.i.i.i.i.i.i.i.i, align 4
  br label %_ZN9__gnu_cxx27__exchange_and_add_dispatchEPii.exit.i.i.i.i.i.i.i.i.i.i.i

if.else.i.i.i.i.i.i.i.i.i.i.i.i:                  ; preds = %if.then7.i.i.i.i.i.i.i.i.i
  %13 = atomicrmw volatile add ptr %_M_weak_count.i.i.i.i.i.i.i.i.i.i.i, i32 -1 acq_rel, align 4
  br label %_ZN9__gnu_cxx27__exchange_and_add_dispatchEPii.exit.i.i.i.i.i.i.i.i.i.i.i

_ZN9__gnu_cxx27__exchange_and_add_dispatchEPii.exit.i.i.i.i.i.i.i.i.i.i.i: ; preds = %if.else.i.i.i.i.i.i.i.i.i.i.i.i, %if.then.i.i.i.i.i.i.i.i.i.i.i.i
  %retval.i.0.i.i.i.i.i.i.i.i.i.i.i = phi i32 [ %12, %if.then.i.i.i.i.i.i.i.i.i.i.i.i ], [ %13, %if.else.i.i.i.i.i.i.i.i.i.i.i.i ]
  %cmp.i.i.i.i.i.i.i.i.i.i.i = icmp eq i32 %retval.i.0.i.i.i.i.i.i.i.i.i.i.i, 1
  br i1 %cmp.i.i.i.i.i.i.i.i.i.i.i, label %if.end8.sink.split.i.i.i.i.i.i.i.i.i, label %_ZSt8_DestroyISt10shared_ptrIN8facebook5velox6memory10MemoryPoolEEEvPT_.exit.i.i.i.i

if.end8.sink.split.i.i.i.i.i.i.i.i.i:             ; preds = %_ZN9__gnu_cxx27__exchange_and_add_dispatchEPii.exit.i.i.i.i.i.i.i.i.i.i.i, %if.then.i.i.i.i.i.i.i.i.i
  %vtable2.i.i.i.i.i.i.i.i.i.i.i = load ptr, ptr %4, align 8
  %vfn3.i.i.i.i.i.i.i.i.i.i.i = getelementptr inbounds i8, ptr %vtable2.i.i.i.i.i.i.i.i.i.i.i, i64 24
  %14 = load ptr, ptr %vfn3.i.i.i.i.i.i.i.i.i.i.i, align 8
  call void %14(ptr noundef nonnull align 8 dereferenceable(16) %4) #19
  br label %_ZSt8_DestroyISt10shared_ptrIN8facebook5velox6memory10MemoryPoolEEEvPT_.exit.i.i.i.i

_ZSt8_DestroyISt10shared_ptrIN8facebook5velox6memory10MemoryPoolEEEvPT_.exit.i.i.i.i: ; preds = %if.end8.sink.split.i.i.i.i.i.i.i.i.i, %_ZN9__gnu_cxx27__exchange_and_add_dispatchEPii.exit.i.i.i.i.i.i.i.i.i.i.i, %_ZN9__gnu_cxx27__exchange_and_add_dispatchEPii.exit.i.i.i.i.i.i.i.i.i, %for.body.i.i.i.i
  %incdec.ptr.i.i.i.i = getelementptr inbounds i8, ptr %__first.addr.04.i.i.i.i, i64 16
  %cmp.not.i.i.i.i = icmp eq ptr %incdec.ptr.i.i.i.i, %3
  br i1 %cmp.not.i.i.i.i, label %invoke.contthread-pre-split.i, label %for.body.i.i.i.i, !llvm.loop !29

invoke.contthread-pre-split.i:                    ; preds = %_ZSt8_DestroyISt10shared_ptrIN8facebook5velox6memory10MemoryPoolEEEvPT_.exit.i.i.i.i
  %.pr.i = load ptr, ptr %ref.tmp, align 8
  br label %invoke.cont.i

invoke.cont.i:                                    ; preds = %invoke.contthread-pre-split.i, %invoke.cont
  %15 = phi ptr [ %.pr.i, %invoke.contthread-pre-split.i ], [ %2, %invoke.cont ]
  %tobool.not.i.i.i = icmp eq ptr %15, null
  br i1 %tobool.not.i.i.i, label %_ZNSt6vectorISt10shared_ptrIN8facebook5velox6memory10MemoryPoolEESaIS5_EED2Ev.exit, label %if.then.i.i.i

if.then.i.i.i:                                    ; preds = %invoke.cont.i
  call void @_ZdlPv(ptr noundef nonnull %15) #23
  br label %_ZNSt6vectorISt10shared_ptrIN8facebook5velox6memory10MemoryPoolEESaIS5_EED2Ev.exit

_ZNSt6vectorISt10shared_ptrIN8facebook5velox6memory10MemoryPoolEESaIS5_EED2Ev.exit: ; preds = %invoke.cont.i, %if.then.i.i.i
  ret i64 %call2

lpad:                                             ; preds = %entry
  %16 = landingpad { ptr, i32 }
          cleanup
  call void @_ZNSt6vectorISt10shared_ptrIN8facebook5velox6memory10MemoryPoolEESaIS5_EED2Ev(ptr noundef nonnull align 8 dereferenceable(24) %ref.tmp) #19
  resume { ptr, i32 } %16
}